; Function Attrs: nounwind uwtable
define dso_local ptr @getSubscriptingRoutines(i32 noundef %0, ptr noundef writeonly captures(address_is_null) %1) local_unnamed_addr #0 {
  %3 = zext i32 %0 to i64
  %4 = tail call ptr @SearchSysCache1(i32 noundef 82, i64 noundef %3) #8
  %.not.i = icmp eq ptr %4, null
  br i1 %.not.i, label %16, label %5

5:                                                ; preds = %2
  %6 = getelementptr i8, ptr %4, i64 16
  %.val.i = load ptr, ptr %6, align 8
  %7 = getelementptr inbounds nuw i8, ptr %.val.i, i64 22
  %8 = load i8, ptr %7, align 2
  %9 = zext i8 %8 to i64
  %10 = getelementptr inbounds nuw i8, ptr %.val.i, i64 %9
  %11 = getelementptr inbounds nuw i8, ptr %10, i64 88
  %12 = load i32, ptr %11, align 4
  %.not14.i = icmp eq ptr %1, null
  br i1 %.not14.i, label %get_typsubscript.exit, label %13

13:                                               ; preds = %5
  %14 = getelementptr inbounds nuw i8, ptr %10, i64 92
  %15 = load i32, ptr %14, align 4
  store i32 %15, ptr %1, align 4
  br label %get_typsubscript.exit

16:                                               ; preds = %2
  %.not13.i = icmp eq ptr %1, null
  br i1 %.not13.i, label %get_typsubscript.exit.thread, label %17

17:                                               ; preds = %16
  store i32 0, ptr %1, align 4
  br label %get_typsubscript.exit.thread

get_typsubscript.exit:                            ; preds = %5, %13
  tail call void @ReleaseSysCache(ptr noundef nonnull %4) #8
  %.not = icmp eq i32 %12, 0
  br i1 %.not, label %get_typsubscript.exit.thread, label %18

18:                                               ; preds = %get_typsubscript.exit
  %19 = tail call i64 @OidFunctionCall0Coll(i32 noundef %12, i32 noundef 0) #8
  %20 = inttoptr i64 %19 to ptr
  br label %get_typsubscript.exit.thread

get_typsubscript.exit.thread:                     ; preds = %16, %17, %get_typsubscript.exit, %18
  %.0 = phi ptr [ %20, %18 ], [ null, %get_typsubscript.exit ], [ null, %17 ], [ null, %16 ]
  ret ptr %.0
}